target datalayout = "e-m:e-p270:32:32-p271:32:32-p272:64:64-i64:64-i128:128-f80:128-n8:16:32:64-S128"
target triple = "x86_64-pc-linux-gnu"

@_ZN4cvc58internal21RewriteProofGeneratorD1Ev = hidden unnamed_addr alias void (ptr), ptr @_ZN4cvc58internal21RewriteProofGeneratorD2Ev

; Function Attrs: nounwind uwtable
define hidden void @_ZThn16_N4cvc58internal21RewriteProofGeneratorD1Ev(ptr noundef %0) unnamed_addr #6 align 2 {
  %2 = alloca ptr, align 8
  store ptr %0, ptr %2, align 8, !tbaa !3
  %3 = load ptr, ptr %2, align 8
  %4 = getelementptr inbounds i8, ptr %3, i64 -16
  tail call void @_ZN4cvc58internal21RewriteProofGeneratorD1Ev(ptr noundef nonnull align 8 dereferenceable(56) %4) #3
  ret void
}